target datalayout = "e-m:e-p270:32:32-p271:32:32-p272:64:64-i64:64-i128:128-f80:128-n8:16:32:64-S128"
target triple = "x86_64-pc-linux-gnu"

; Function Attrs: alwaysinline nounwind willreturn memory(none) uwtable
define internal zeroext i8 @av_clip_uint8_c(i32 noundef %0) #6 {
  %2 = alloca i8, align 1
  %3 = alloca i32, align 4
  store i32 %0, ptr %3, align 4, !tbaa !30
  %4 = load i32, ptr %3, align 4, !tbaa !30
  %5 = and i32 %4, -256
  %6 = icmp ne i32 %5, 0
  br i1 %6, label %7, label %12

7:                                                ; preds = %1
  %8 = load i32, ptr %3, align 4, !tbaa !30
  %9 = xor i32 %8, -1
  %10 = ashr i32 %9, 31
  %11 = trunc i32 %10 to i8
  store i8 %11, ptr %2, align 1
  br label %15

12:                                               ; preds = %1
  %13 = load i32, ptr %3, align 4, !tbaa !30
  %14 = trunc i32 %13 to i8
  store i8 %14, ptr %2, align 1
  br label %15

15:                                               ; preds = %12, %7
  %16 = load i8, ptr %2, align 1
  ret i8 %16
}

; Function Attrs: nounwind uwtable
define internal void @yuv2ya8_1_c(ptr noundef %0, ptr noundef %1, ptr noundef %2, ptr noundef %3, ptr noundef %4, ptr noundef %5, i32 noundef %6, i32 noundef %7, i32 noundef %8) #4 {
  %10 = alloca ptr, align 8
  %11 = alloca ptr, align 8
  %12 = alloca ptr, align 8
  %13 = alloca ptr, align 8
  %14 = alloca ptr, align 8
  %15 = alloca ptr, align 8
  %16 = alloca i32, align 4
  %17 = alloca i32, align 4
  %18 = alloca i32, align 4
  %19 = alloca i32, align 4
  %20 = alloca i32, align 4
  %21 = alloca i32, align 4
  %22 = alloca i32, align 4
  store ptr %0, ptr %10, align 8, !tbaa !4
  store ptr %1, ptr %11, align 8, !tbaa !45
  store ptr %2, ptr %12, align 8, !tbaa !47
  store ptr %3, ptr %13, align 8, !tbaa !47
  store ptr %4, ptr %14, align 8, !tbaa !45
  store ptr %5, ptr %15, align 8, !tbaa !46
  store i32 %6, ptr %16, align 4, !tbaa !30
  store i32 %7, ptr %17, align 4, !tbaa !30
  store i32 %8, ptr %18, align 4, !tbaa !30
  call void @llvm.lifetime.start.p0(i64 4, ptr %19) #8
  %23 = load ptr, ptr %14, align 8, !tbaa !45
  %24 = icmp ne ptr %23, null
  %25 = xor i1 %24, true
  %26 = xor i1 %25, true
  %27 = zext i1 %26 to i32
  store i32 %27, ptr %19, align 4, !tbaa !30
  call void @llvm.lifetime.start.p0(i64 4, ptr %20) #8
  store i32 0, ptr %20, align 4, !tbaa !30
  br label %28

28:                                               ; preds = %85, %9
  %29 = load i32, ptr %20, align 4, !tbaa !30
  %30 = load i32, ptr %16, align 4, !tbaa !30
  %31 = icmp slt i32 %29, %30
  br i1 %31, label %32, label %88

32:                                               ; preds = %28
  call void @llvm.lifetime.start.p0(i64 4, ptr %21) #8
  %33 = load ptr, ptr %11, align 8, !tbaa !45
  %34 = load i32, ptr %20, align 4, !tbaa !30
  %35 = sext i32 %34 to i64
  %36 = getelementptr inbounds i16, ptr %33, i64 %35
  %37 = load i16, ptr %36, align 2, !tbaa !49
  %38 = sext i16 %37 to i32
  %39 = add nsw i32 %38, 64
  %40 = ashr i32 %39, 7
  store i32 %40, ptr %21, align 4, !tbaa !30
  call void @llvm.lifetime.start.p0(i64 4, ptr %22) #8
  %41 = load i32, ptr %21, align 4, !tbaa !30
  %42 = call zeroext i8 @av_clip_uint8_c(i32 noundef %41) #10
  %43 = zext i8 %42 to i32
  store i32 %43, ptr %21, align 4, !tbaa !30
  %44 = load i32, ptr %19, align 4, !tbaa !30
  %45 = icmp ne i32 %44, 0
  br i1 %45, label %46, label %63

46:                                               ; preds = %32
  %47 = load ptr, ptr %14, align 8, !tbaa !45
  %48 = load i32, ptr %20, align 4, !tbaa !30
  %49 = sext i32 %48 to i64
  %50 = getelementptr inbounds i16, ptr %47, i64 %49
  %51 = load i16, ptr %50, align 2, !tbaa !49
  %52 = sext i16 %51 to i32
  %53 = add nsw i32 %52, 64
  %54 = ashr i32 %53, 7
  store i32 %54, ptr %22, align 4, !tbaa !30
  %55 = load i32, ptr %22, align 4, !tbaa !30
  %56 = and i32 %55, 256
  %57 = icmp ne i32 %56, 0
  br i1 %57, label %58, label %62

58:                                               ; preds = %46
  %59 = load i32, ptr %22, align 4, !tbaa !30
  %60 = call zeroext i8 @av_clip_uint8_c(i32 noundef %59) #10
  %61 = zext i8 %60 to i32
  store i32 %61, ptr %22, align 4, !tbaa !30
  br label %62

62:                                               ; preds = %58, %46
  br label %63

63:                                               ; preds = %62, %32
  %64 = load i32, ptr %21, align 4, !tbaa !30
  %65 = trunc i32 %64 to i8
  %66 = load ptr, ptr %15, align 8, !tbaa !46
  %67 = load i32, ptr %20, align 4, !tbaa !30
  %68 = mul nsw i32 %67, 2
  %69 = sext i32 %68 to i64
  %70 = getelementptr inbounds i8, ptr %66, i64 %69
  store i8 %65, ptr %70, align 1, !tbaa !51
  %71 = load i32, ptr %19, align 4, !tbaa !30
  %72 = icmp ne i32 %71, 0
  br i1 %72, label %73, label %75

73:                                               ; preds = %63
  %74 = load i32, ptr %22, align 4, !tbaa !30
  br label %76

75:                                               ; preds = %63
  br label %76

76:                                               ; preds = %75, %73
  %77 = phi i32 [ %74, %73 ], [ 255, %75 ]
  %78 = trunc i32 %77 to i8
  %79 = load ptr, ptr %15, align 8, !tbaa !46
  %80 = load i32, ptr %20, align 4, !tbaa !30
  %81 = mul nsw i32 %80, 2
  %82 = add nsw i32 %81, 1
  %83 = sext i32 %82 to i64
  %84 = getelementptr inbounds i8, ptr %79, i64 %83
  store i8 %78, ptr %84, align 1, !tbaa !51
  call void @llvm.lifetime.end.p0(i64 4, ptr %22) #8
  call void @llvm.lifetime.end.p0(i64 4, ptr %21) #8
  br label %85

85:                                               ; preds = %76
  %86 = load i32, ptr %20, align 4, !tbaa !30
  %87 = add nsw i32 %86, 1
  store i32 %87, ptr %20, align 4, !tbaa !30
  br label %28, !llvm.loop !92

88:                                               ; preds = %28
  call void @llvm.lifetime.end.p0(i64 4, ptr %20) #8
  call void @llvm.lifetime.end.p0(i64 4, ptr %19) #8
  ret void
}