; Function Attrs: nofree norecurse nosync nounwind memory(argmem: readwrite) uwtable
define internal void @yuv2ya8_1_c(ptr readnone captures(none) %0, ptr noundef readonly captures(none) %1, ptr readnone captures(none) %2, ptr readnone captures(none) %3, ptr noundef readonly captures(address_is_null) %4, ptr noundef writeonly captures(none) %5, i32 noundef %6, i32 %7, i32 %8) #2 {
  %10 = icmp sgt i32 %6, 0
  br i1 %10, label %.lr.ph, label %._crit_edge

.lr.ph:                                           ; preds = %9
  %.not = icmp eq ptr %4, null
  %wide.trip.count30 = zext nneg i32 %6 to i64
  br i1 %.not, label %.lr.ph.split.us, label %.lr.ph.split

.lr.ph.split.us:                                  ; preds = %.lr.ph, %.lr.ph.split.us
  %indvars.iv27 = phi i64 [ %indvars.iv.next28, %.lr.ph.split.us ], [ 0, %.lr.ph ]
  %11 = getelementptr inbounds nuw i16, ptr %1, i64 %indvars.iv27
  %12 = load i16, ptr %11, align 2, !tbaa !39
  %13 = sext i16 %12 to i32
  %14 = add nsw i32 %13, 64
  %15 = ashr i32 %14, 7
  %.not.i.us = icmp ult i32 %15, 256
  %isnotneg.i.us = icmp sgt i32 %15, -1
  %16 = sext i1 %isnotneg.i.us to i8
  %17 = trunc nuw i32 %15 to i8
  %.0.i.us = select i1 %.not.i.us, i8 %17, i8 %16
  %18 = shl nuw nsw i64 %indvars.iv27, 1
  %19 = getelementptr inbounds nuw i8, ptr %5, i64 %18
  store i8 %.0.i.us, ptr %19, align 1, !tbaa !41
  %20 = getelementptr inbounds nuw i8, ptr %19, i64 1
  store i8 -1, ptr %20, align 1, !tbaa !41
  %indvars.iv.next28 = add nuw nsw i64 %indvars.iv27, 1
  %exitcond31.not = icmp eq i64 %indvars.iv.next28, %wide.trip.count30
  br i1 %exitcond31.not, label %._crit_edge, label %.lr.ph.split.us, !llvm.loop !144

.lr.ph.split:                                     ; preds = %.lr.ph, %.lr.ph.split
  %indvars.iv = phi i64 [ %indvars.iv.next, %.lr.ph.split ], [ 0, %.lr.ph ]
  %21 = getelementptr inbounds nuw i16, ptr %1, i64 %indvars.iv
  %22 = load i16, ptr %21, align 2, !tbaa !39
  %23 = sext i16 %22 to i32
  %24 = add nsw i32 %23, 64
  %25 = ashr i32 %24, 7
  %.not.i = icmp ult i32 %25, 256
  %isnotneg.i = icmp sgt i32 %25, -1
  %26 = sext i1 %isnotneg.i to i8
  %27 = trunc nuw i32 %25 to i8
  %.0.i = select i1 %.not.i, i8 %27, i8 %26
  %28 = getelementptr inbounds nuw i16, ptr %4, i64 %indvars.iv
  %29 = load i16, ptr %28, align 2, !tbaa !39
  %30 = sext i16 %29 to i32
  %31 = add nsw i32 %30, 64
  %32 = ashr i32 %31, 7
  %33 = and i32 %31, 32768
  %.not20 = icmp eq i32 %33, 0
  %.not.i21 = icmp ult i32 %32, 256
  %isnotneg.i22 = icmp sgt i32 %32, -1
  %34 = sext i1 %isnotneg.i22 to i32
  %35 = or i1 %.not20, %.not.i21
  %36 = select i1 %35, i32 %32, i32 %34
  %37 = shl nuw nsw i64 %indvars.iv, 1
  %38 = getelementptr inbounds nuw i8, ptr %5, i64 %37
  store i8 %.0.i, ptr %38, align 1, !tbaa !41
  %39 = trunc i32 %36 to i8
  %40 = getelementptr inbounds nuw i8, ptr %38, i64 1
  store i8 %39, ptr %40, align 1, !tbaa !41
  %indvars.iv.next = add nuw nsw i64 %indvars.iv, 1
  %exitcond.not = icmp eq i64 %indvars.iv.next, %wide.trip.count30
  br i1 %exitcond.not, label %._crit_edge, label %.lr.ph.split, !llvm.loop !144

._crit_edge:                                      ; preds = %.lr.ph.split, %.lr.ph.split.us, %9
  ret void
}